target datalayout = "e-m:e-p270:32:32-p271:32:32-p272:64:64-i64:64-i128:128-f80:128-n8:16:32:64-S128"
target triple = "x86_64-pc-linux-gnu"

%struct.dt_gui_themetweak_widgets_t = type { ptr, ptr, ptr }

; Function Attrs: nounwind uwtable
define internal void @usercss_dialog_callback(ptr noundef %0, i32 noundef %1, ptr noundef %2) #0 {
  %4 = alloca ptr, align 8
  %5 = alloca i32, align 4
  %6 = alloca ptr, align 8
  %7 = alloca ptr, align 8
  %8 = alloca ptr, align 8
  store ptr %0, ptr %4, align 8, !tbaa !62
  store i32 %1, ptr %5, align 4, !tbaa !57
  store ptr %2, ptr %6, align 8, !tbaa !61
  call void @llvm.lifetime.start.p0(i64 8, ptr %7) #10
  %9 = load ptr, ptr %6, align 8, !tbaa !61
  store ptr %9, ptr %7, align 8, !tbaa !78
  call void @llvm.lifetime.start.p0(i64 8, ptr %8) #10
  %10 = load ptr, ptr %7, align 8, !tbaa !78
  %11 = getelementptr inbounds nuw %struct.dt_gui_themetweak_widgets_t, ptr %10, i32 0, i32 2
  %12 = load ptr, ptr %11, align 8, !tbaa !101
  %13 = call i64 @gtk_text_view_get_type() #11
  %14 = call ptr @g_type_check_instance_cast(ptr noundef %12, i64 noundef %13)
  %15 = call ptr @gtk_text_view_get_buffer(ptr noundef %14)
  store ptr %15, ptr %8, align 8, !tbaa !99
  %16 = load ptr, ptr %8, align 8, !tbaa !99
  call void @save_usercss(ptr noundef %16)
  call void @llvm.lifetime.end.p0(i64 8, ptr %8) #10
  call void @llvm.lifetime.end.p0(i64 8, ptr %7) #10
  ret void
}