; Function Attrs: nounwind uwtable
define internal void @usercss_dialog_callback(ptr readnone captures(none) %0, i32 %1, ptr noundef readonly captures(none) %2) #0 {
  %4 = getelementptr inbounds nuw i8, ptr %2, i64 16
  %5 = load ptr, ptr %4, align 8, !tbaa !73
  %6 = tail call i64 @gtk_text_view_get_type() #13
  %7 = tail call ptr @g_type_check_instance_cast(ptr noundef %5, i64 noundef %6) #12
  %8 = tail call ptr @gtk_text_view_get_buffer(ptr noundef %7) #12
  tail call fastcc void @save_usercss(ptr noundef %8)
  ret void
}